Certificate:
    Data:
        Version: 3 (0x2)
        Serial Number:
            cc:c1:18:08:26:32:e1:8b
        Signature Algorithm: sha256WithRSAEncryption
        Issuer: C=UA, ST=Kharkiv Oblast', L=Kharkiv, O=Internet Systems Consortium, CN=ca.test.example.com
        Validity
            Not Before: Dec  8 11:52:43 2022 GMT
            Not After : Nov 30 11:52:43 2052 GMT
        Subject: CN=srv02.crt01.example.nil
        Subject Public Key Info:
            Public Key Algorithm: rsaEncryption
                Public-Key: (3072 bit)
                Modulus:
                    00:93:ea:3a:43:83:ff:92:80:06:be:4e:a0:53:5d:
                    0b:9d:c9:b1:b8:fe:d5:cc:dc:af:94:7a:ab:ba:13:
                    0f:c0:b6:99:71:78:90:b1:7f:41:07:85:59:26:90:
                    14:88:7b:fc:0c:64:70:37:f3:2a:39:80:80:48:4e:
                    5f:77:74:26:fa:aa:dd:3f:7b:8e:63:b5:a6:ce:bc:
                    bc:5a:aa:1d:2c:b0:9a:54:8c:03:46:8b:e6:19:52:
                    51:48:16:2d:88:ac:df:73:bb:5d:86:f5:80:ff:12:
                    93:d1:53:7f:3b:69:35:56:6d:81:8a:ea:4b:bd:75:
                    d5:bf:a2:b8:f9:98:17:c7:47:e7:5a:0a:47:a0:00:
                    3d:5c:77:42:95:ef:60:ea:e2:2c:ab:97:a9:f3:1d:
                    c7:a7:f9:aa:2f:5d:03:b6:5b:48:87:b4:27:4b:99:
                    b3:e3:99:f8:cd:bb:51:88:f4:1e:34:d5:3e:e3:12:
                    3c:2d:c0:b7:2a:9d:0b:73:7f:3a:ad:27:97:17:58:
                    51:70:08:87:75:42:d2:87:47:67:c0:db:c6:b9:f8:
                    b0:31:a6:cb:15:24:7b:54:06:fd:92:e6:24:71:3f:
                    55:02:02:71:f2:47:7f:e5:fe:be:d4:5f:1e:b5:58:
                    f7:09:fa:60:e3:36:25:bd:f4:91:58:e6:f2:fd:f1:
                    5a:00:e8:77:26:dc:2d:20:10:fc:c7:a2:16:0a:e1:
                    59:e4:e5:a0:72:d4:23:88:a7:56:71:1d:69:f5:1e:
                    e4:c1:ec:87:7a:ef:19:dd:df:fa:25:f0:3b:6f:c5:
                    5f:14:20:26:fa:9b:e0:af:51:c4:18:3f:3c:49:7d:
                    26:25:c2:d9:5c:67:5d:f8:af:73:20:58:ae:65:5e:
                    71:03:77:78:7d:45:37:0a:a3:b7:32:eb:fe:ff:5f:
                    c6:e9:b8:5b:37:f1:61:d5:84:27:50:d3:55:72:2c:
                    8a:75:16:9a:95:b5:f9:2d:eb:d0:22:49:57:6b:65:
                    87:aa:71:a8:6d:39:96:fe:e7:a9
                Exponent: 65537 (0x10001)
        X509v3 extensions:
            X509v3 Subject Alternative Name:
                DNS:srv02.crt01.example.nil, IP Address:10.53.0.2
            X509v3 Subject Key Identifier:
                70:90:94:81:4A:B2:BF:13:D6:29:1A:90:D9:33:A4:C5:74:29:CF:59
            X509v3 Authority Key Identifier:
                7C:89:E8:5C:EB:E5:1F:72:48:04:C5:8F:FB:92:08:9C:F5:60:26:39
    Signature Algorithm: sha256WithRSAEncryption
    Signature Value:
        77:6c:f4:07:36:0b:ef:6e:86:2d:41:73:e0:ba:f7:4c:f1:bd:
        8f:77:89:1a:8c:63:2e:39:93:a2:43:ee:70:85:f1:5d:01:60:
        ab:e6:50:a1:5e:72:e3:89:13:77:e0:a5:f7:fa:27:31:93:1f:
        3a:a7:35:5f:7d:59:3c:d2:26:9c:12:fa:51:2b:d3:31:0c:5a:
        e7:a8:be:6a:2e:b2:82:6c:42:f2:86:74:9c:0a:c8:58:a8:68:
        35:73:6e:1b:0c:9e:3b:08:3f:b9:ef:68:61:e9:d3:40:1d:aa:
        dd:42:e3:1d:b0:1b:6e:b8:58:60:a1:68:4a:ff:09:b7:58:5b:
        72:e8:36:a3:6d:10:78:c7:7f:52:f6:dc:39:5c:05:7d:7a:ae:
        8d:3f:89:8f:10:a6:4d:8b:55:6a:9b:cb:2c:1d:00:59:9b:0c:
        c3:55:e0:a3:25:69:b4:29:30:2f:20:bf:07:f4:21:88:b7:d0:
        62:ad:d7:ca:e1:91:45:9f:a2:5f:7d:07:f4:98:b0:5e:d4:3a:
        92:86:e9:a1:fb:c0:9b:81:46:da:56:ed:92:47:c0:1a:aa:55:
        37:0e:3c:92:2c:44:7a:80:55:1f:15:7a:7c:c4:7e:ad:d5:b0:
        a5:7e:33:63:09:23:6b:78:42:de:37:aa:04:a7:52:ed:06:fe:
        d4:56:36:12:85:b6:ec:ff:03:ea:4b:e2:7a:42:49:73:b6:ab:
        e4:7d:4a:2b:94:65:1f:b1:17:a3:be:17:0b:4e:53:3d:8a:d3:
        d7:04:0f:f1:1a:63:b2:a6:eb:00:31:64:b4:80:e9:ae:bb:69:
        12:04:a5:7d:2c:bd:91:62:2c:b9:5a:6e:af:e0:ee:27:f0:88:
        15:8b:b7:ce:07:5e:bc:6b:e9:3e:3f:23:c7:f9:c9:48:20:69:
        6a:8e:f2:17:9b:58:ff:72:36:21:ed:d3:83:16:60:ec:de:6f:
        c4:50:47:b7:61:ce:75:c1:d6:60:28:de:bd:69:7c:e6:db:0e:
        b9:fa:7b:84:24:35
-----BEGIN CERTIFICATE-----
MIIEkDCCAvigAwIBAgIJAMzBGAgmMuGLMA0GCSqGSIb3DQEBCwUAMH0xCzAJBgNV
BAYTAlVBMRgwFgYDVQQIDA9LaGFya2l2IE9ibGFzdCcxEDAOBgNVBAcMB0toYXJr
aXYxJDAiBgNVBAoMG0ludGVybmV0IFN5c3RlbXMgQ29uc29ydGl1bTEcMBoGA1UE
AwwTY2EudGVzdC5leGFtcGxlLmNvbTAgFw0yMjEyMDgxMTUyNDNaGA8yMDUyMTEz
MDExNTI0M1owIjEgMB4GA1UEAwwXc3J2MDIuY3J0MDEuZXhhbXBsZS5uaWwwggGi
MA0GCSqGSIb3DQEBAQUAA4IBjwAwggGKAoIBgQCT6jpDg/+SgAa+TqBTXQudybG4
/tXM3K+Uequ6Ew/AtplxeJCxf0EHhVkmkBSIe/wMZHA38yo5gIBITl93dCb6qt0/
e45jtabOvLxaqh0ssJpUjANGi+YZUlFIFi2IrN9zu12G9YD/EpPRU387aTVWbYGK
6ku9ddW/orj5mBfHR+daCkegAD1cd0KV72Dq4iyrl6nzHcen+aovXQO2W0iHtCdL
mbPjmfjNu1GI9B401T7jEjwtwLcqnQtzfzqtJ5cXWFFwCId1QtKHR2fA28a5+LAx
pssVJHtUBv2S5iRxP1UCAnHyR3/l/r7UXx61WPcJ+mDjNiW99JFY5vL98VoA6Hcm
3C0gEPzHohYK4Vnk5aBy1COIp1ZxHWn1HuTB7Id67xnd3/ol8DtvxV8UICb6m+Cv
UcQYPzxJfSYlwtlcZ134r3MgWK5lXnEDd3h9RTcKo7cy6/7/X8bpuFs38WHVhCdQ
01VyLIp1FpqVtfkt69AiSVdrZYeqcahtOZb+56kCAwEAAaNsMGowKAYDVR0RBCEw
H4IXc3J2MDIuY3J0MDEuZXhhbXBsZS5uaWyHBAo1AAIwHQYDVR0OBBYEFHCQlIFK
sr8T1ikakNkzpMV0Kc9ZMB8GA1UdIwQYMBaAFHyJ6Fzr5R9ySATFj/uSCJz1YCY5
MA0GCSqGSIb3DQEBCwUAA4IBgQB3bPQHNgvvboYtQXPguvdM8b2Pd4kajGMuOZOi
Q+5whfFdAWCr5lChXnLjiRN34KX3+icxkx86pzVffVk80iacEvpRK9MxDFrnqL5q
LrKCbELyhnScCshYqGg1c24bDJ47CD+572hh6dNAHardQuMdsBtuuFhgoWhK/wm3
WFty6DajbRB4x39S9tw5XAV9eq6NP4mPEKZNi1Vqm8ssHQBZmwzDVeCjJWm0KTAv
IL8H9CGIt9BirdfK4ZFFn6JffQf0mLBe1DqShumh+8CbgUbaVu2SR8AaqlU3DjyS
LER6gFUfFXp8xH6t1bClfjNjCSNreELeN6oEp1LtBv7UVjYShbbs/wPqS+J6Qklz
tqvkfUorlGUfsRejvhcLTlM9itPXBA/xGmOypusAMWS0gOmuu2kSBKV9LL2RYiy5
Wm6v4O4n8IgVi7fOB168a+k+PyPH+clIIGlqjvIXm1j/cjYh7dODFmDs3m/EUEe3
Yc51wdZgKN69aXzm2w65+nuEJDU=
-----END CERTIFICATE-----
