Certificate:
    Data:
        Version: 3 (0x2)
        Serial Number:
            cc:c1:18:08:26:32:e1:8c
        Signature Algorithm: sha256WithRSAEncryption
        Issuer: C=UA, ST=Kharkiv Oblast', L=Kharkiv, O=Internet Systems Consortium, CN=ca.test.example.com
        Validity
            Not Before: Dec  7 11:55:54 2022 GMT
            Not After : Dec  8 11:55:54 2022 GMT
        Subject: CN=srv02.crt02-expired.example.nil
        Subject Public Key Info:
            Public Key Algorithm: rsaEncryption
                Public-Key: (3072 bit)
                Modulus:
                    00:ce:00:36:6e:b8:3f:db:fe:90:f7:de:e1:ed:43:
                    4b:19:97:78:d8:ae:32:3c:4b:d5:8e:cd:1f:29:78:
                    e2:af:d3:02:95:34:2c:5e:cd:54:8a:07:70:6b:61:
                    a9:af:22:a7:6e:cf:86:b6:71:d7:4d:b4:af:f3:f0:
                    9b:28:49:18:8c:66:88:67:63:47:e9:cd:a8:e9:5c:
                    63:c0:be:08:b2:77:81:05:83:c7:3a:53:1b:c6:7a:
                    82:99:fa:54:6f:4f:30:80:50:96:92:16:6e:10:16:
                    ca:76:ee:c9:e5:90:63:98:98:e7:58:61:09:15:e9:
                    45:67:89:f1:df:21:69:b6:ad:b7:24:68:92:07:b6:
                    6f:93:f8:fb:bd:b5:90:c9:57:5a:e5:46:6c:d0:73:
                    33:3c:10:6e:01:dc:46:f5:84:95:5d:2b:03:e3:3a:
                    0d:66:59:f8:92:37:78:49:74:32:32:96:fa:bd:05:
                    27:43:f8:f9:90:7c:e4:2b:36:54:c0:f2:77:fd:4f:
                    ed:87:00:08:23:4d:57:81:a0:4f:f6:2e:9c:a0:22:
                    3d:f6:27:b2:39:ed:44:8e:5c:92:4c:4b:b9:74:bb:
                    0a:c4:97:e3:85:66:29:fc:75:3b:b5:3d:e1:22:57:
                    33:11:2e:9a:a9:41:84:82:ea:44:b5:fc:3a:b4:88:
                    31:11:46:98:c2:ec:db:43:55:72:a7:9f:a1:65:c0:
                    bf:11:a7:44:27:a3:8b:06:4f:08:2a:2d:4c:c9:aa:
                    d5:3d:03:24:66:e6:03:9b:9c:98:1a:5f:45:e8:b9:
                    1d:f1:05:40:d8:3e:ed:40:05:1e:fa:8a:58:c5:a2:
                    f2:2a:a1:cb:25:7e:61:8c:0e:3c:cc:5b:43:3a:7c:
                    8b:a7:64:b8:c5:2b:6b:16:59:06:ad:ec:19:b5:1d:
                    73:44:2f:f4:6c:31:f1:6e:f4:55:f6:44:37:ee:db:
                    20:fe:54:92:43:28:f8:44:cb:9f:9f:b6:2c:aa:61:
                    1f:2f:1a:15:15:cc:61:f3:b9:6f
                Exponent: 65537 (0x10001)
        X509v3 extensions:
            X509v3 Subject Alternative Name:
                DNS:srv02.crt02-expired.example.nil, IP Address:10.53.0.2
            X509v3 Subject Key Identifier:
                A7:8A:6D:EA:10:B4:6B:B8:13:16:6B:BA:A0:26:C3:9A:E7:A6:71:7E
            X509v3 Authority Key Identifier:
                7C:89:E8:5C:EB:E5:1F:72:48:04:C5:8F:FB:92:08:9C:F5:60:26:39
    Signature Algorithm: sha256WithRSAEncryption
    Signature Value:
        34:7b:38:92:d9:c1:ba:ed:c7:b3:61:63:e6:d2:11:4e:0c:83:
        8f:97:3a:11:97:51:3e:8d:9b:49:bb:f5:2c:92:d1:c2:e4:3b:
        ad:db:69:cc:1f:cf:58:3d:4f:51:97:d1:09:19:2f:22:b5:3d:
        e1:0d:e5:65:40:2a:54:19:55:22:11:85:18:1a:08:31:97:d8:
        fe:cf:4c:9b:ec:8b:8f:9c:cd:cf:5b:a1:56:e4:1d:e0:79:4b:
        ee:6b:1c:0b:60:a8:d8:fd:5c:a8:9d:dc:74:4f:ce:b8:f8:19:
        a4:00:db:93:7b:ae:34:55:c6:fb:35:1b:9e:bc:d0:5f:da:8d:
        77:0e:1f:45:89:d4:dd:f1:a9:4e:48:64:d2:4e:b6:4b:57:a0:
        87:cf:a8:30:35:6e:09:91:56:59:9b:01:af:8a:f7:11:8c:d8:
        2e:56:89:eb:a5:a0:6c:d2:56:0c:da:13:4d:36:92:28:50:b1:
        e5:cd:64:60:ac:93:f4:98:d7:eb:df:7b:42:89:da:c0:6d:6e:
        75:ae:45:28:9b:e8:de:00:dc:eb:df:ba:4f:63:2a:61:e5:42:
        f3:e0:8f:aa:bd:f7:f6:9b:67:1b:ed:1e:a6:ae:4c:81:a2:62:
        ff:a8:8f:94:da:a8:9d:27:fa:a4:46:44:2e:13:f2:05:2b:c4:
        a6:57:d3:95:1c:ca:f8:e3:d2:0f:28:70:8a:1b:37:4f:b7:c1:
        b3:fd:4b:85:ca:9d:8a:bb:62:85:47:66:c7:31:b8:db:c4:5d:
        66:9d:6e:7b:94:07:fa:09:ae:5b:5b:23:31:ba:c8:40:82:4b:
        6a:48:d2:83:0c:5f:b9:62:64:06:16:05:dd:e8:a8:02:eb:d7:
        7a:9b:d9:49:d6:87:0e:16:ca:d6:4e:46:46:e5:37:e4:0d:68:
        b7:d2:d6:78:c4:ee:c1:3b:38:8e:83:df:1f:39:63:1c:65:7a:
        e0:26:1f:96:8a:57:9d:6b:27:62:6e:40:86:83:29:fd:1f:a1:
        69:2a:92:cf:ab:db
-----BEGIN CERTIFICATE-----
MIIEnjCCAwagAwIBAgIJAMzBGAgmMuGMMA0GCSqGSIb3DQEBCwUAMH0xCzAJBgNV
BAYTAlVBMRgwFgYDVQQIDA9LaGFya2l2IE9ibGFzdCcxEDAOBgNVBAcMB0toYXJr
aXYxJDAiBgNVBAoMG0ludGVybmV0IFN5c3RlbXMgQ29uc29ydGl1bTEcMBoGA1UE
AwwTY2EudGVzdC5leGFtcGxlLmNvbTAeFw0yMjEyMDcxMTU1NTRaFw0yMjEyMDgx
MTU1NTRaMCoxKDAmBgNVBAMMH3NydjAyLmNydDAyLWV4cGlyZWQuZXhhbXBsZS5u
aWwwggGiMA0GCSqGSIb3DQEBAQUAA4IBjwAwggGKAoIBgQDOADZuuD/b/pD33uHt
Q0sZl3jYrjI8S9WOzR8peOKv0wKVNCxezVSKB3BrYamvIqduz4a2cddNtK/z8Jso
SRiMZohnY0fpzajpXGPAvgiyd4EFg8c6UxvGeoKZ+lRvTzCAUJaSFm4QFsp27snl
kGOYmOdYYQkV6UVnifHfIWm2rbckaJIHtm+T+Pu9tZDJV1rlRmzQczM8EG4B3Eb1
hJVdKwPjOg1mWfiSN3hJdDIylvq9BSdD+PmQfOQrNlTA8nf9T+2HAAgjTVeBoE/2
LpygIj32J7I57USOXJJMS7l0uwrEl+OFZin8dTu1PeEiVzMRLpqpQYSC6kS1/Dq0
iDERRpjC7NtDVXKnn6FlwL8Rp0Qno4sGTwgqLUzJqtU9AyRm5gObnJgaX0XouR3x
BUDYPu1ABR76iljFovIqocslfmGMDjzMW0M6fIunZLjFK2sWWQat7Bm1HXNEL/Rs
MfFu9FX2RDfu2yD+VJJDKPhEy5+ftiyqYR8vGhUVzGHzuW8CAwEAAaN0MHIwMAYD
VR0RBCkwJ4Ifc3J2MDIuY3J0MDItZXhwaXJlZC5leGFtcGxlLm5pbIcECjUAAjAd
BgNVHQ4EFgQUp4pt6hC0a7gTFmu6oCbDmuemcX4wHwYDVR0jBBgwFoAUfInoXOvl
H3JIBMWP+5IInPVgJjkwDQYJKoZIhvcNAQELBQADggGBADR7OJLZwbrtx7NhY+bS
EU4Mg4+XOhGXUT6Nm0m79SyS0cLkO63bacwfz1g9T1GX0QkZLyK1PeEN5WVAKlQZ
VSIRhRgaCDGX2P7PTJvsi4+czc9boVbkHeB5S+5rHAtgqNj9XKid3HRPzrj4GaQA
25N7rjRVxvs1G5680F/ajXcOH0WJ1N3xqU5IZNJOtktXoIfPqDA1bgmRVlmbAa+K
9xGM2C5WieuloGzSVgzaE002kihQseXNZGCsk/SY1+vfe0KJ2sBtbnWuRSib6N4A
3Ovfuk9jKmHlQvPgj6q99/abZxvtHqauTIGiYv+oj5TaqJ0n+qRGRC4T8gUrxKZX
05Ucyvjj0g8ocIobN0+3wbP9S4XKnYq7YoVHZscxuNvEXWadbnuUB/oJrltbIzG6
yECCS2pI0oMMX7liZAYWBd3oqALr13qb2UnWhw4WytZORkblN+QNaLfS1njE7sE7
OI6D3x85YxxleuAmH5aKV51rJ2JuQIaDKf0foWkqks+r2w==
-----END CERTIFICATE-----
