Certificate:
    Data:
        Version: 3 (0x2)
        Serial Number: 8122792693893010840 (0x70b9f4eb2fa19598)
        Signature Algorithm: sha256WithRSAEncryption
        Issuer: C=UA, ST=Kharkiv Oblast', L=Kharkiv, O=Internet Systems Consortium, CN=ca.test.example.com
        Validity
            Not Before: Sep  7 20:28:03 2022 GMT
            Not After : Aug 30 20:28:03 2052 GMT
        Subject: CN=srv01.crt01.example.nil
        Subject Public Key Info:
            Public Key Algorithm: rsaEncryption
                RSA Public-Key: (3072 bit)
                Modulus:
                    00:b4:9a:63:98:04:ad:bd:ab:29:bf:22:70:54:30:
                    df:c7:6b:77:5d:b8:5e:0b:cd:0e:a0:6c:74:37:e7:
                    4b:78:d1:96:da:ca:99:7d:92:b1:e4:1a:0a:1e:b4:
                    1c:be:ee:cc:95:8c:52:03:93:85:e1:40:43:68:86:
                    86:bc:6a:62:6d:d6:0a:ca:ee:4f:93:2d:ee:6b:df:
                    7a:f6:dc:fa:44:a6:39:80:2c:38:7c:89:cd:d9:a3:
                    99:ec:e8:2b:48:6d:84:41:3d:0e:1a:1f:68:5e:17:
                    88:8f:a5:da:4d:1c:36:26:ae:b4:7e:d2:fe:a2:59:
                    d5:67:3a:56:c2:21:65:0d:dd:97:6f:f0:e5:b4:1e:
                    87:ae:97:35:0d:f4:9b:ae:dc:8a:3e:28:aa:b8:a2:
                    ab:ee:9d:b2:c5:91:f6:71:99:a5:86:cb:31:9c:05:
                    d6:9b:94:13:46:a9:9a:c9:a5:55:5f:6c:cc:d0:84:
                    27:e2:b1:b5:73:39:08:7f:80:2f:04:26:96:0c:8d:
                    29:9b:be:5e:cc:39:af:a2:db:82:82:57:07:e6:b2:
                    4a:d9:3d:c8:79:6e:67:61:f3:48:37:a8:4f:9f:b3:
                    cf:84:b6:50:08:3d:e9:85:e9:a9:76:50:80:e7:2c:
                    6f:65:95:cb:e2:23:41:58:39:70:e7:78:29:3d:c2:
                    d6:20:7c:2b:87:30:bd:98:87:63:ed:4a:ad:b9:ed:
                    7a:4b:13:a1:3d:62:5e:b6:74:64:ef:25:a3:dd:93:
                    47:aa:d3:25:7e:2a:d7:09:1b:5c:59:50:f1:d4:c6:
                    9c:f2:64:8a:7c:cb:cc:52:37:50:88:4b:84:35:40:
                    51:0e:a1:06:a2:60:b6:b0:e3:8f:f9:d8:8e:45:77:
                    7d:0e:7d:11:92:22:15:0f:a3:37:84:c4:25:dc:14:
                    b4:20:7a:b7:16:96:72:d4:bf:4d:5d:d2:ab:71:43:
                    44:be:87:44:d2:b8:74:f7:86:3f:d2:5d:dd:5e:e6:
                    74:ab:fb:cc:a3:5d:a6:84:80:0b
                Exponent: 65537 (0x10001)
        X509v3 extensions:
            X509v3 Subject Alternative Name:
                DNS:srv01.crt01.example.nil, IP Address:10.53.0.1
    Signature Algorithm: sha256WithRSAEncryption
         94:15:c0:4a:f1:aa:15:30:f7:cb:fe:f9:fa:ba:5f:f0:18:1f:
         7e:44:9a:b1:d4:9c:f9:78:d3:a7:c7:65:f2:d1:48:62:f4:cb:
         2f:20:ea:7c:af:08:cf:db:e2:0f:ab:c0:22:38:16:c5:0c:e5:
         c7:6e:34:b1:ed:f6:02:1a:69:c0:09:d1:43:b3:30:77:fc:00:
         07:1b:da:88:97:5b:28:4e:e6:92:ca:00:cc:86:66:a9:a9:0a:
         75:be:74:88:7d:09:52:e7:a9:82:8f:a9:62:5e:b3:19:64:14:
         e5:54:9e:6d:9c:98:39:8b:1f:92:92:59:f9:a2:46:75:96:11:
         71:8a:c8:71:05:10:2a:b8:f3:a4:19:db:eb:05:17:0a:dd:98:
         2c:58:54:3a:7f:8c:c2:26:9e:62:ca:04:dd:3c:99:1f:a0:64:
         69:fb:d6:04:c1:0b:8c:62:f6:2d:ea:bc:6c:a9:39:7b:f1:20:
         b8:b7:04:3c:a7:65:fa:1f:db:22:e2:5b:8b:91:75:60:be:e1:
         1e:50:13:23:d5:4b:93:87:20:ec:46:6f:5f:94:dc:b1:60:d1:
         79:4b:5e:76:c9:6d:0d:be:a6:9a:6b:67:8b:a7:48:7e:51:b5:
         9b:9d:ec:a6:0c:c1:b3:d9:0b:26:8b:f2:7c:cf:61:d0:a2:a0:
         90:90:18:6b:b4:ca:56:b8:5e:5a:8b:78:71:c4:d1:fc:15:30:
         0a:03:26:74:85:3d:6c:ed:d3:e1:c9:c1:b0:d4:0c:b9:f3:04:
         93:0d:e3:a6:2c:a7:ee:e0:24:0d:dd:37:fc:6b:09:d5:b5:55:
         33:12:82:cf:f2:ba:0f:b0:e2:ce:f7:c0:ac:2c:7f:ab:f9:dd:
         87:b1:9b:95:f2:d7:32:98:dd:4c:b3:28:b7:0d:2b:2f:62:65:
         ce:59:fb:95:d4:5f:9d:fd:83:5a:01:3b:5f:48:5f:3c:fa:4b:
         52:91:66:e1:49:8e:cd:09:78:f5:ce:f8:cd:5c:85:3e:ad:bd:
         1c:4e:e0:3f:0a:8b
-----BEGIN CERTIFICATE-----
MIIETzCCAregAwIBAgIIcLn06y+hlZgwDQYJKoZIhvcNAQELBQAwfTELMAkGA1UE
BhMCVUExGDAWBgNVBAgMD0toYXJraXYgT2JsYXN0JzEQMA4GA1UEBwwHS2hhcmtp
djEkMCIGA1UECgwbSW50ZXJuZXQgU3lzdGVtcyBDb25zb3J0aXVtMRwwGgYDVQQD
DBNjYS50ZXN0LmV4YW1wbGUuY29tMCAXDTIyMDkwNzIwMjgwM1oYDzIwNTIwODMw
MjAyODAzWjAiMSAwHgYDVQQDDBdzcnYwMS5jcnQwMS5leGFtcGxlLm5pbDCCAaIw
DQYJKoZIhvcNAQEBBQADggGPADCCAYoCggGBALSaY5gErb2rKb8icFQw38drd124
XgvNDqBsdDfnS3jRltrKmX2SseQaCh60HL7uzJWMUgOTheFAQ2iGhrxqYm3WCsru
T5Mt7mvfevbc+kSmOYAsOHyJzdmjmezoK0hthEE9DhofaF4XiI+l2k0cNiautH7S
/qJZ1Wc6VsIhZQ3dl2/w5bQeh66XNQ30m67cij4oqriiq+6dssWR9nGZpYbLMZwF
1puUE0apmsmlVV9szNCEJ+KxtXM5CH+ALwQmlgyNKZu+Xsw5r6LbgoJXB+ayStk9
yHluZ2HzSDeoT5+zz4S2UAg96YXpqXZQgOcsb2WVy+IjQVg5cOd4KT3C1iB8K4cw
vZiHY+1KrbnteksToT1iXrZ0ZO8lo92TR6rTJX4q1wkbXFlQ8dTGnPJkinzLzFI3
UIhLhDVAUQ6hBqJgtrDjj/nYjkV3fQ59EZIiFQ+jN4TEJdwUtCB6txaWctS/TV3S
q3FDRL6HRNK4dPeGP9Jd3V7mdKv7zKNdpoSACwIDAQABoywwKjAoBgNVHREEITAf
ghdzcnYwMS5jcnQwMS5leGFtcGxlLm5pbIcECjUAATANBgkqhkiG9w0BAQsFAAOC
AYEAlBXASvGqFTD3y/75+rpf8BgffkSasdSc+XjTp8dl8tFIYvTLLyDqfK8Iz9vi
D6vAIjgWxQzlx240se32AhppwAnRQ7Mwd/wABxvaiJdbKE7mksoAzIZmqakKdb50
iH0JUuepgo+pYl6zGWQU5VSebZyYOYsfkpJZ+aJGdZYRcYrIcQUQKrjzpBnb6wUX
Ct2YLFhUOn+MwiaeYsoE3TyZH6BkafvWBMELjGL2Leq8bKk5e/EguLcEPKdl+h/b
IuJbi5F1YL7hHlATI9VLk4cg7EZvX5TcsWDReUtedsltDb6mmmtni6dIflG1m53s
pgzBs9kLJovyfM9h0KKgkJAYa7TKVrheWot4ccTR/BUwCgMmdIU9bO3T4cnBsNQM
ufMEkw3jpiyn7uAkDd03/GsJ1bVVMxKCz/K6D7DizvfArCx/q/ndh7GblfLXMpjd
TLMotw0rL2Jlzln7ldRfnf2DWgE7X0hfPPpLUpFm4UmOzQl49c74zVyFPq29HE7g
PwqL
-----END CERTIFICATE-----
