Certificate:
    Data:
        Version: 3 (0x2)
        Serial Number:
            c5:86:68:39:7b:1c:c4:a1
        Signature Algorithm: sha256WithRSAEncryption
        Issuer: C=UA, ST=Kharkiv Oblast', L=Kharkiv, O=Internet Systems Consortium, CN=ca.test.example.com
        Validity
            Not Before: Sep  2 15:33:27 2024 GMT
            Not After : Sep  3 15:33:27 2024 GMT
        Subject: CN=srv03.crt01-expired.example.com
        Subject Public Key Info:
            Public Key Algorithm: id-ecPublicKey
                Public-Key: (384 bit)
                pub:
                    04:4d:ac:8c:a8:ff:c7:00:0d:ce:69:b9:18:ec:4e:
                    2a:c8:06:fb:be:bc:a9:ed:b8:c7:c4:52:06:a7:8d:
                    77:ea:3b:f9:d8:ce:1d:d7:b4:2d:f1:1a:ff:0d:70:
                    4f:8a:a9:9c:fa:a4:c4:30:f0:e5:d8:3d:dd:62:f2:
                    7d:40:8e:5f:dc:57:6c:dd:54:38:20:0e:be:e6:8a:
                    5c:c4:e9:f7:95:48:f9:34:26:bc:5d:b9:aa:95:f8:
                    c9:d7:26:2b:72:eb:94
                ASN1 OID: secp384r1
                NIST CURVE: P-384
        X509v3 extensions:
            X509v3 Subject Alternative Name:
                DNS:srv03.crt01-expired.example.com, IP Address:10.53.0.3
            X509v3 Subject Key Identifier:
                72:38:25:01:CB:38:FF:CB:D3:78:24:43:BA:64:EA:76:FB:58:F6:EA
            X509v3 Authority Key Identifier:
                7C:89:E8:5C:EB:E5:1F:72:48:04:C5:8F:FB:92:08:9C:F5:60:26:39
    Signature Algorithm: sha256WithRSAEncryption
    Signature Value:
        4a:f3:59:df:4d:ff:fd:de:fc:c8:bc:34:4c:e1:39:00:62:09:
        c8:34:2b:d0:3e:52:91:ea:ae:da:86:94:7d:83:84:48:5d:50:
        ac:b7:a5:70:87:f4:62:f0:c6:9a:73:d2:78:29:cf:21:20:ae:
        0e:b0:55:36:1d:6c:c1:7f:0f:b7:26:d8:14:43:64:c6:58:8b:
        68:87:fd:cc:3f:d1:c1:f5:67:71:bc:71:7b:d4:f1:02:b0:4c:
        dd:b2:4a:18:99:46:3a:44:b2:6b:c4:61:79:8f:be:e8:19:d4:
        cc:f7:95:32:b0:74:18:76:c6:df:5f:c1:90:24:3c:a6:5d:2a:
        6f:90:7d:94:43:f3:df:1f:80:70:ff:8a:c8:b9:1f:c5:4e:08:
        d1:54:f0:d8:72:af:07:30:9f:8a:65:66:ff:ff:a4:37:de:10:
        01:a6:00:c7:31:08:dd:f0:0a:5f:d3:e6:dd:d1:37:43:f2:44:
        13:bc:9e:68:40:bd:96:84:16:73:0f:01:95:40:65:ba:70:93:
        a9:81:27:6e:b6:fb:ad:10:36:46:a3:75:94:00:62:f3:10:32:
        c2:4a:0e:3a:bf:ab:07:14:a3:68:fd:eb:c7:c8:16:90:30:80:
        f1:28:5c:64:a7:ba:8e:fa:27:09:4c:0b:08:d9:56:77:cd:25:
        7c:1f:58:78:48:c1:8c:73:10:39:f2:06:79:7c:8d:b9:ca:25:
        7c:b1:75:62:68:a7:14:c6:5b:00:78:67:e4:d8:e1:62:0b:6e:
        8d:5a:e6:23:d2:d4:dd:28:71:32:16:88:ad:b3:ee:a6:69:e7:
        ff:1e:85:62:3c:65:88:c7:47:0c:1d:a0:d9:12:5c:31:98:01:
        cd:a4:28:52:ad:dc:8b:1a:e6:d4:62:3d:1b:c6:52:00:b5:34:
        9d:1d:d8:6b:d3:ce:63:52:62:13:74:2a:7c:ff:0a:d7:0b:99:
        a9:2b:b3:ba:e8:cf:a0:77:f0:85:12:ba:4c:54:71:74:dd:32:
        13:ca:44:c2:0f:d9
-----BEGIN CERTIFICATE-----
MIIDcDCCAdigAwIBAgIJAMWGaDl7HMShMA0GCSqGSIb3DQEBCwUAMH0xCzAJBgNV
BAYTAlVBMRgwFgYDVQQIDA9LaGFya2l2IE9ibGFzdCcxEDAOBgNVBAcMB0toYXJr
aXYxJDAiBgNVBAoMG0ludGVybmV0IFN5c3RlbXMgQ29uc29ydGl1bTEcMBoGA1UE
AwwTY2EudGVzdC5leGFtcGxlLmNvbTAeFw0yNDA5MDIxNTMzMjdaFw0yNDA5MDMx
NTMzMjdaMCoxKDAmBgNVBAMMH3NydjAzLmNydDAxLWV4cGlyZWQuZXhhbXBsZS5j
b20wdjAQBgcqhkjOPQIBBgUrgQQAIgNiAARNrIyo/8cADc5puRjsTirIBvu+vKnt
uMfEUganjXfqO/nYzh3XtC3xGv8NcE+KqZz6pMQw8OXYPd1i8n1Ajl/cV2zdVDgg
Dr7milzE6feVSPk0JrxduaqV+MnXJity65SjdDByMDAGA1UdEQQpMCeCH3NydjAz
LmNydDAxLWV4cGlyZWQuZXhhbXBsZS5jb22HBAo1AAMwHQYDVR0OBBYEFHI4JQHL
OP/L03gkQ7pk6nb7WPbqMB8GA1UdIwQYMBaAFHyJ6Fzr5R9ySATFj/uSCJz1YCY5
MA0GCSqGSIb3DQEBCwUAA4IBgQBK81nfTf/93vzIvDRM4TkAYgnINCvQPlKR6q7a
hpR9g4RIXVCst6Vwh/Ri8Maac9J4Kc8hIK4OsFU2HWzBfw+3JtgUQ2TGWItoh/3M
P9HB9WdxvHF71PECsEzdskoYmUY6RLJrxGF5j77oGdTM95UysHQYdsbfX8GQJDym
XSpvkH2UQ/PfH4Bw/4rIuR/FTgjRVPDYcq8HMJ+KZWb//6Q33hABpgDHMQjd8Apf
0+bd0TdD8kQTvJ5oQL2WhBZzDwGVQGW6cJOpgSdutvutEDZGo3WUAGLzEDLCSg46
v6sHFKNo/evHyBaQMIDxKFxkp7qO+icJTAsI2VZ3zSV8H1h4SMGMcxA58gZ5fI25
yiV8sXViaKcUxlsAeGfk2OFiC26NWuYj0tTdKHEyFoits+6maef/HoViPGWIx0cM
HaDZElwxmAHNpChSrdyLGubUYj0bxlIAtTSdHdhr085jUmITdCp8/wrXC5mpK7O6
6M+gd/CFErpMVHF03TITykTCD9k=
-----END CERTIFICATE-----
