Certificate:
    Data:
        Version: 3 (0x2)
        Serial Number:
            cc:c1:18:08:26:32:e1:8d
        Signature Algorithm: sha256WithRSAEncryption
        Issuer: C=UA, ST=Kharkiv Oblast', L=Kharkiv, O=Internet Systems Consortium, CN=ca.test.example.com
        Validity
            Not Before: Dec  8 11:58:45 2022 GMT
            Not After : Nov 30 11:58:45 2052 GMT
        Subject: CN=srv04.crt01.example.nil
        Subject Public Key Info:
            Public Key Algorithm: rsaEncryption
                Public-Key: (3072 bit)
                Modulus:
                    00:8d:e6:8a:10:6f:06:8f:b2:e5:f4:de:14:4d:d4:
                    3c:1a:21:03:fe:32:02:d6:6d:0a:25:35:3d:50:00:
                    71:d6:7b:75:d1:e0:04:36:20:da:39:db:9d:df:19:
                    fe:5b:c3:e2:d0:72:c4:0d:be:57:d8:c2:3f:30:a8:
                    99:b1:c3:1a:c8:96:a5:8a:0c:7a:e6:e9:2b:3e:c9:
                    f9:f5:46:b2:cc:14:4c:e6:d1:65:25:19:fb:2c:2b:
                    e4:6d:00:ba:7c:7f:f6:07:24:17:30:42:cb:04:e9:
                    94:36:e3:18:8b:60:77:6c:68:d3:9e:62:81:82:64:
                    24:2c:e9:ba:b8:d0:40:2f:e6:fd:e9:fa:aa:14:83:
                    6f:26:16:c1:b7:b3:6d:fd:4a:3f:8f:a1:a9:e6:7b:
                    bd:c1:60:a1:6b:ff:02:93:cc:08:93:9e:1e:0c:a3:
                    31:29:20:74:e5:37:46:d8:41:10:c7:11:f4:d8:e7:
                    43:7c:4d:bc:fb:fd:39:3a:79:8e:c2:0b:fe:21:df:
                    16:c2:fc:10:b3:9b:da:cc:80:d3:64:56:6f:09:af:
                    f6:73:8b:cb:64:e4:fe:c5:4c:85:4e:c3:ed:a4:0a:
                    0a:53:f6:be:8d:5e:7a:42:4f:cd:b0:21:a4:8e:e4:
                    45:fe:28:f6:4d:29:58:db:4a:b4:70:7a:3f:0b:db:
                    64:3e:23:a5:99:47:11:7b:2c:66:83:a9:79:27:09:
                    45:72:ac:4a:fa:35:6f:1f:64:d4:ab:cf:09:90:92:
                    71:4a:d1:02:80:b1:ab:b0:19:ec:01:c6:a7:31:2b:
                    4b:dc:3b:09:00:ad:9a:12:ca:e9:cd:54:bd:96:23:
                    a3:14:2e:40:58:33:58:2f:70:05:c9:c6:28:f1:3e:
                    d4:94:13:db:09:b3:63:78:6f:57:72:e8:1f:28:6f:
                    7c:b6:25:76:4e:ab:11:c9:a5:d7:ca:32:00:5f:5e:
                    14:ae:53:65:13:37:2b:d2:98:3c:d4:47:74:40:cf:
                    ff:1b:ad:59:35:c1:d1:d3:a6:ff
                Exponent: 65537 (0x10001)
        X509v3 extensions:
            X509v3 Subject Alternative Name:
                DNS:srv04.crt01.example.nil, IP Address:10.53.0.4
            X509v3 Subject Key Identifier:
                CA:83:06:FB:3E:57:50:DD:FD:BF:00:5A:60:E2:6D:98:71:CD:2C:F2
            X509v3 Authority Key Identifier:
                7C:89:E8:5C:EB:E5:1F:72:48:04:C5:8F:FB:92:08:9C:F5:60:26:39
    Signature Algorithm: sha256WithRSAEncryption
    Signature Value:
        6f:24:c5:ba:8e:62:5d:58:50:a5:25:a1:fc:41:fc:18:cb:7c:
        11:02:0a:ad:7f:13:2a:20:07:92:5a:82:c0:92:9d:35:40:b0:
        c9:85:5a:23:26:fb:55:b7:99:7a:18:a7:ae:b4:6e:a2:29:f8:
        25:70:fa:3e:bf:b0:ec:91:d7:46:55:55:ab:fd:22:a6:c1:b4:
        50:92:27:ea:d8:a1:71:ec:14:84:69:0a:c9:de:3f:c1:63:94:
        17:5e:78:e7:85:34:80:bf:c3:58:f1:4d:fb:0c:b4:2e:2b:9c:
        66:15:1f:e3:d6:3a:c1:95:b1:f5:f2:9c:dc:99:cb:d5:39:35:
        6a:bf:bc:f4:81:9d:7c:4c:c1:76:f8:4d:26:ab:f4:f0:50:b2:
        f9:41:65:6c:df:9d:16:57:e3:dc:7d:85:0a:14:5f:20:ea:08:
        5e:ab:3c:75:ae:f6:7e:55:62:3b:4c:4a:c7:48:4f:24:f2:78:
        e6:99:52:76:87:6e:b3:08:7c:d6:4e:41:72:8f:ed:f1:5a:1a:
        20:e7:c2:cd:a0:6f:04:6c:f1:71:87:21:00:49:29:c1:fb:bd:
        08:a7:51:34:bb:e0:f1:f7:59:3d:b8:9e:c6:48:06:fe:e6:ea:
        30:8b:65:8f:d2:31:c5:d6:4e:a8:22:7e:fc:85:05:3d:e4:7c:
        38:54:07:46:cc:94:8e:a5:d3:4c:09:71:6e:60:63:e4:6a:8e:
        aa:c2:81:df:31:37:2a:96:b3:53:36:a2:76:44:59:18:33:81:
        6c:24:84:a3:61:68:63:a2:02:bd:fd:b2:9c:db:0f:cc:a6:44:
        54:c6:2d:13:fb:96:80:63:e7:e9:2e:36:3c:00:34:3e:62:5d:
        fe:59:95:cb:b2:d0:cc:9a:69:ce:00:cc:59:c3:f7:79:3a:4f:
        95:e9:64:c9:ad:28:96:e2:80:dd:59:45:29:6c:ed:0d:6e:4e:
        50:69:6e:ef:50:32:4e:5c:af:63:39:57:90:08:0f:b9:4e:ba:
        b2:24:ae:bb:78:39
-----BEGIN CERTIFICATE-----
MIIEkDCCAvigAwIBAgIJAMzBGAgmMuGNMA0GCSqGSIb3DQEBCwUAMH0xCzAJBgNV
BAYTAlVBMRgwFgYDVQQIDA9LaGFya2l2IE9ibGFzdCcxEDAOBgNVBAcMB0toYXJr
aXYxJDAiBgNVBAoMG0ludGVybmV0IFN5c3RlbXMgQ29uc29ydGl1bTEcMBoGA1UE
AwwTY2EudGVzdC5leGFtcGxlLmNvbTAgFw0yMjEyMDgxMTU4NDVaGA8yMDUyMTEz
MDExNTg0NVowIjEgMB4GA1UEAwwXc3J2MDQuY3J0MDEuZXhhbXBsZS5uaWwwggGi
MA0GCSqGSIb3DQEBAQUAA4IBjwAwggGKAoIBgQCN5ooQbwaPsuX03hRN1DwaIQP+
MgLWbQolNT1QAHHWe3XR4AQ2INo5253fGf5bw+LQcsQNvlfYwj8wqJmxwxrIlqWK
DHrm6Ss+yfn1RrLMFEzm0WUlGfssK+RtALp8f/YHJBcwQssE6ZQ24xiLYHdsaNOe
YoGCZCQs6bq40EAv5v3p+qoUg28mFsG3s239Sj+Poanme73BYKFr/wKTzAiTnh4M
ozEpIHTlN0bYQRDHEfTY50N8Tbz7/Tk6eY7CC/4h3xbC/BCzm9rMgNNkVm8Jr/Zz
i8tk5P7FTIVOw+2kCgpT9r6NXnpCT82wIaSO5EX+KPZNKVjbSrRwej8L22Q+I6WZ
RxF7LGaDqXknCUVyrEr6NW8fZNSrzwmQknFK0QKAsauwGewBxqcxK0vcOwkArZoS
yunNVL2WI6MULkBYM1gvcAXJxijxPtSUE9sJs2N4b1dy6B8ob3y2JXZOqxHJpdfK
MgBfXhSuU2UTNyvSmDzUR3RAz/8brVk1wdHTpv8CAwEAAaNsMGowKAYDVR0RBCEw
H4IXc3J2MDQuY3J0MDEuZXhhbXBsZS5uaWyHBAo1AAQwHQYDVR0OBBYEFMqDBvs+
V1Dd/b8AWmDibZhxzSzyMB8GA1UdIwQYMBaAFHyJ6Fzr5R9ySATFj/uSCJz1YCY5
MA0GCSqGSIb3DQEBCwUAA4IBgQBvJMW6jmJdWFClJaH8QfwYy3wRAgqtfxMqIAeS
WoLAkp01QLDJhVojJvtVt5l6GKeutG6iKfglcPo+v7DskddGVVWr/SKmwbRQkifq
2KFx7BSEaQrJ3j/BY5QXXnjnhTSAv8NY8U37DLQuK5xmFR/j1jrBlbH18pzcmcvV
OTVqv7z0gZ18TMF2+E0mq/TwULL5QWVs350WV+PcfYUKFF8g6gheqzx1rvZ+VWI7
TErHSE8k8njmmVJ2h26zCHzWTkFyj+3xWhog58LNoG8EbPFxhyEASSnB+70Ip1E0
u+Dx91k9uJ7GSAb+5uowi2WP0jHF1k6oIn78hQU95Hw4VAdGzJSOpdNMCXFuYGPk
ao6qwoHfMTcqlrNTNqJ2RFkYM4FsJISjYWhjogK9/bKc2w/MpkRUxi0T+5aAY+fp
LjY8ADQ+Yl3+WZXLstDMmmnOAMxZw/d5Ok+V6WTJrSiW4oDdWUUpbO0Nbk5QaW7v
UDJOXK9jOVeQCA+5TrqyJK67eDk=
-----END CERTIFICATE-----
