Certificate:
    Data:
        Version: 3 (0x2)
        Serial Number: 8122792693893010842 (0x70b9f4eb2fa1959a)
        Signature Algorithm: sha256WithRSAEncryption
        Issuer: C=UA, ST=Kharkiv Oblast', L=Kharkiv, O=Internet Systems Consortium, CN=ca.test.example.com
        Validity
            Not Before: Sep  8 08:20:17 2022 GMT
            Not After : Aug 31 08:20:17 2052 GMT
        Subject: CN=srv01.client01.example.nil
        Subject Public Key Info:
            Public Key Algorithm: rsaEncryption
                RSA Public-Key: (3072 bit)
                Modulus:
                    00:ab:60:2e:9c:61:e3:89:c6:52:2b:bc:e9:e1:05:
                    fd:18:65:42:20:f6:56:16:40:33:d2:cb:9f:f7:ef:
                    22:54:a7:c9:55:70:ca:52:f0:e2:a2:58:38:7f:10:
                    ad:2b:05:e0:11:b6:69:21:7f:2d:38:56:dd:d5:e4:
                    f3:de:a7:32:35:f7:33:2a:52:80:ae:b7:d6:7c:35:
                    74:c3:0c:8a:c3:3a:18:61:68:73:62:58:56:ff:78:
                    25:57:1c:7b:be:98:88:21:dd:1c:8a:13:a5:9a:52:
                    48:98:d9:3d:c4:28:a6:7e:9b:11:56:7e:ce:09:bb:
                    51:89:8a:a8:1b:00:b5:73:2b:41:93:b1:62:40:30:
                    29:ea:f6:a3:e7:bc:f0:e9:9e:07:2b:ae:a9:a0:1d:
                    4d:d9:f8:18:4d:83:47:4e:68:ee:57:c8:55:15:86:
                    3c:6d:1e:f5:31:f1:de:cf:c2:7e:6b:8e:22:5a:c5:
                    76:af:d0:01:de:ab:7a:03:b2:96:33:cc:a0:26:ae:
                    de:c4:bd:76:85:96:c7:88:e4:46:bc:3f:c6:54:c9:
                    95:83:87:9c:49:0d:31:dd:c4:17:52:99:e4:65:49:
                    9b:9d:f3:ad:ce:66:08:57:f4:83:be:5e:87:da:42:
                    5a:01:2a:6d:68:d1:8d:38:d9:18:ae:5e:2e:54:72:
                    8b:01:45:96:af:f5:a3:d0:29:5d:22:8b:b4:d4:30:
                    af:02:36:c5:2d:e9:29:eb:2c:ea:6a:7e:27:b3:70:
                    fc:87:1f:2b:c4:b1:3a:a6:c2:e9:b7:c2:6f:46:63:
                    b7:96:2e:53:d8:b7:cd:c3:f4:b5:6d:b2:fc:57:49:
                    ac:9f:98:c9:fe:b4:f5:7c:93:48:2e:93:dc:e9:18:
                    54:63:5f:18:a3:e7:12:aa:fe:38:f0:73:e5:17:1e:
                    fe:40:65:81:a8:8f:60:46:c2:16:f2:a8:9d:b1:1b:
                    bc:ce:05:de:37:b2:a8:86:47:bd:8d:92:de:e0:e5:
                    42:89:b8:e3:f8:b1:24:08:7e:99
                Exponent: 65537 (0x10001)
        X509v3 extensions:
            X509v3 Subject Alternative Name:
                DNS:srv01.client01.example.nil, IP Address:10.53.0.1
    Signature Algorithm: sha256WithRSAEncryption
         07:97:69:51:12:50:6a:e1:02:a0:b0:dc:93:75:16:c4:38:0f:
         5c:b3:47:da:bf:fa:9c:b6:de:c0:ef:38:f7:cc:d9:8d:71:ba:
         51:89:e5:48:36:dd:e1:f8:73:9d:92:80:1c:42:30:69:4f:8c:
         19:5d:f7:1d:03:e4:f2:76:e0:58:7b:c2:76:c4:0a:7e:20:69:
         26:6c:3e:cb:31:45:93:1d:07:5f:45:44:8e:5a:fb:87:17:7b:
         4d:5c:bf:37:bd:5e:ba:5c:22:84:bf:26:21:4a:c4:e9:f9:cb:
         73:de:fc:62:04:96:ad:aa:fd:89:09:5c:74:d6:bd:5f:07:17:
         ef:9c:3d:ee:b7:dc:08:11:7f:12:66:ab:c4:ff:43:6d:7f:1e:
         01:b6:d1:19:73:53:18:e4:02:b0:7c:9e:99:63:d8:57:dd:07:
         79:fb:83:39:09:de:76:6e:68:b7:87:81:13:b8:26:e5:1c:c9:
         a0:23:e5:97:39:ff:93:c7:8d:08:d8:ce:97:34:fc:ad:22:14:
         89:c0:ae:83:7d:0a:3f:cf:a0:9b:b4:6a:5c:b3:6d:5d:3b:88:
         ca:1e:9b:99:54:64:57:58:3c:4c:bd:26:ee:11:c3:13:0b:1d:
         f5:fd:d9:37:b0:31:72:6f:1d:e8:ba:43:37:46:f7:71:fe:6d:
         4a:30:33:29:c5:7b:37:8b:7e:06:22:89:a4:46:36:f0:fe:c6:
         f5:f0:53:04:c0:35:52:78:6e:10:24:3a:d8:bf:7b:13:2f:98:
         bc:69:31:41:68:02:5a:c4:f9:11:a2:6b:3f:c8:e0:d4:b3:80:
         af:d2:be:fe:28:70:61:18:ed:8a:de:c4:cb:da:c9:60:94:91:
         76:63:69:8c:6e:96:f5:ba:e7:be:1e:1c:c3:84:b1:8d:e8:31:
         f7:66:8c:0d:da:a8:78:57:19:fd:a0:8d:fa:9a:7e:51:1c:d1:
         d0:84:07:a2:45:40:2d:c4:6b:e9:9f:86:4a:08:20:8f:9c:79:
         97:e3:7f:2a:14:73
-----BEGIN CERTIFICATE-----
MIIEVTCCAr2gAwIBAgIIcLn06y+hlZowDQYJKoZIhvcNAQELBQAwfTELMAkGA1UE
BhMCVUExGDAWBgNVBAgMD0toYXJraXYgT2JsYXN0JzEQMA4GA1UEBwwHS2hhcmtp
djEkMCIGA1UECgwbSW50ZXJuZXQgU3lzdGVtcyBDb25zb3J0aXVtMRwwGgYDVQQD
DBNjYS50ZXN0LmV4YW1wbGUuY29tMCAXDTIyMDkwODA4MjAxN1oYDzIwNTIwODMx
MDgyMDE3WjAlMSMwIQYDVQQDDBpzcnYwMS5jbGllbnQwMS5leGFtcGxlLm5pbDCC
AaIwDQYJKoZIhvcNAQEBBQADggGPADCCAYoCggGBAKtgLpxh44nGUiu86eEF/Rhl
QiD2VhZAM9LLn/fvIlSnyVVwylLw4qJYOH8QrSsF4BG2aSF/LThW3dXk896nMjX3
MypSgK631nw1dMMMisM6GGFoc2JYVv94JVcce76YiCHdHIoTpZpSSJjZPcQopn6b
EVZ+zgm7UYmKqBsAtXMrQZOxYkAwKer2o+e88OmeByuuqaAdTdn4GE2DR05o7lfI
VRWGPG0e9THx3s/CfmuOIlrFdq/QAd6regOyljPMoCau3sS9doWWx4jkRrw/xlTJ
lYOHnEkNMd3EF1KZ5GVJm53zrc5mCFf0g75eh9pCWgEqbWjRjTjZGK5eLlRyiwFF
lq/1o9ApXSKLtNQwrwI2xS3pKess6mp+J7Nw/IcfK8SxOqbC6bfCb0Zjt5YuU9i3
zcP0tW2y/FdJrJ+Yyf609XyTSC6T3OkYVGNfGKPnEqr+OPBz5Rce/kBlgaiPYEbC
FvKonbEbvM4F3jeyqIZHvY2S3uDlQom44/ixJAh+mQIDAQABoy8wLTArBgNVHREE
JDAighpzcnYwMS5jbGllbnQwMS5leGFtcGxlLm5pbIcECjUAATANBgkqhkiG9w0B
AQsFAAOCAYEAB5dpURJQauECoLDck3UWxDgPXLNH2r/6nLbewO8498zZjXG6UYnl
SDbd4fhznZKAHEIwaU+MGV33HQPk8nbgWHvCdsQKfiBpJmw+yzFFkx0HX0VEjlr7
hxd7TVy/N71eulwihL8mIUrE6fnLc978YgSWrar9iQlcdNa9XwcX75w97rfcCBF/
EmarxP9DbX8eAbbRGXNTGOQCsHyemWPYV90HefuDOQnedm5ot4eBE7gm5RzJoCPl
lzn/k8eNCNjOlzT8rSIUicCug30KP8+gm7RqXLNtXTuIyh6bmVRkV1g8TL0m7hHD
Ewsd9f3ZN7Axcm8d6LpDN0b3cf5tSjAzKcV7N4t+BiKJpEY28P7G9fBTBMA1Unhu
ECQ62L97Ey+YvGkxQWgCWsT5EaJrP8jg1LOAr9K+/ihwYRjtit7Ey9rJYJSRdmNp
jG6W9brnvh4cw4Sxjegx92aMDdqoeFcZ/aCN+pp+URzR0IQHokVALcRr6Z+GSggg
j5x5l+N/KhRz
-----END CERTIFICATE-----
