Certificate:
    Data:
        Version: 3 (0x2)
        Serial Number: 8122792693893010841 (0x70b9f4eb2fa19599)
        Signature Algorithm: sha256WithRSAEncryption
        Issuer: C=UA, ST=Kharkiv Oblast', L=Kharkiv, O=Internet Systems Consortium, CN=ca.test.example.com
        Validity
            Not Before: Sep  6 20:34:09 2022 GMT
            Not After : Sep  7 20:34:09 2022 GMT
        Subject: CN=srv01.crt02-expired.example.nil
        Subject Public Key Info:
            Public Key Algorithm: rsaEncryption
                RSA Public-Key: (3072 bit)
                Modulus:
                    00:ec:2c:88:01:b5:8b:3a:74:56:0d:57:b3:75:fd:
                    05:58:05:ed:8a:ab:e8:29:0e:f1:52:34:2e:22:62:
                    6e:41:74:ff:78:33:b4:ff:15:73:fa:ce:90:10:a4:
                    fe:d2:66:14:7b:0b:79:7b:d6:20:88:f9:41:31:14:
                    9a:49:36:8c:38:74:4b:f3:e2:51:e7:e5:6f:bd:65:
                    38:e6:9c:30:80:3f:24:56:f6:68:9e:09:76:81:5b:
                    59:81:44:56:9f:1c:3f:48:f0:95:bf:60:40:29:df:
                    ac:42:3d:c3:6f:85:2d:c3:0e:08:b6:f7:12:2a:51:
                    00:bf:cf:fe:6c:ae:d7:7d:de:c1:72:f8:32:03:5f:
                    c9:3f:4a:de:e5:fa:24:90:46:f0:4a:5f:09:d8:93:
                    4c:bf:1c:61:4c:d2:dc:db:6c:f8:af:73:5b:b7:3b:
                    7a:e8:6d:1c:bb:26:23:47:87:fd:50:06:0f:f1:b5:
                    88:8a:a8:25:69:57:e3:46:3b:d2:6b:52:fb:5a:01:
                    f6:96:e9:2a:cf:13:e7:16:4c:fd:5a:f6:1f:0b:8d:
                    f7:25:a3:68:d7:15:fc:5c:48:49:05:e2:85:24:70:
                    57:b1:d8:05:24:ae:26:3a:00:9b:72:a8:47:05:c5:
                    f3:7c:2d:f2:58:72:37:fb:c1:8b:4f:42:8f:dd:9a:
                    ac:5b:ae:6f:21:62:ad:29:81:b9:8b:4b:6c:ff:61:
                    99:0f:7c:09:d3:6d:00:20:2d:b1:0c:00:6c:99:4c:
                    92:dc:0e:11:2d:e7:ba:7b:c7:c8:b1:a3:1a:61:f8:
                    cc:2c:af:17:b6:db:cc:36:02:fe:fb:66:15:77:84:
                    70:cd:42:25:b7:16:64:28:ae:9d:8c:81:85:a0:e0:
                    50:82:aa:e8:e9:ac:51:fc:2b:63:44:b1:08:b8:90:
                    d7:8c:1c:23:b2:1b:08:59:85:d5:dd:39:44:f7:47:
                    5e:48:08:34:eb:2c:df:75:47:08:b6:b6:e6:32:ed:
                    76:74:77:ce:3d:4d:fe:02:b1:33
                Exponent: 65537 (0x10001)
        X509v3 extensions:
            X509v3 Subject Alternative Name:
                DNS:srv01.crt02-expired.example.nil, IP Address:10.53.0.1
    Signature Algorithm: sha256WithRSAEncryption
         2a:52:c4:cb:a9:2f:f7:2b:ed:04:b5:03:d5:06:59:ed:5c:7c:
         b7:00:9e:c4:33:90:fe:d0:b0:18:f3:f2:06:30:54:18:fe:34:
         cb:ea:61:4f:9c:23:67:3c:ae:ed:20:df:82:52:ec:59:88:45:
         ad:3c:6c:a7:34:24:1c:4d:66:ab:71:3d:59:8c:ef:cd:a0:e2:
         7b:59:2d:43:94:cd:f5:0a:3c:4e:81:24:e8:fd:c6:d0:fd:ad:
         6f:cc:29:5b:67:0b:b7:ee:43:38:a4:91:c2:d9:3b:f8:d6:97:
         bc:92:dd:ec:a1:ab:85:35:44:f4:0a:df:ad:8d:8c:52:c3:49:
         7e:39:10:a1:13:43:78:71:e2:92:aa:31:3d:d9:94:15:7f:86:
         c8:aa:b4:a1:6d:bf:eb:55:b1:d7:41:6f:c3:7d:88:5e:9c:b7:
         b1:4b:0d:a7:17:4f:3e:4a:46:3f:6f:48:27:8c:d0:e5:51:fc:
         42:ba:c5:b9:4f:63:6f:2e:f2:fd:0c:c0:6e:23:b4:59:93:68:
         a4:2d:16:ce:f4:7b:3a:45:1d:a0:6e:98:0b:f7:6a:e6:75:0c:
         db:56:19:6b:88:f0:7f:6b:08:f8:fc:bb:d1:3f:25:25:1a:6c:
         8e:34:cb:91:18:54:d5:2d:ce:9c:d0:b7:c3:bc:b5:0a:e0:b9:
         73:6f:4d:ad:6b:3c:b6:49:ef:c0:10:13:c7:0a:78:4d:98:7d:
         cb:84:a1:29:40:8c:dd:31:7d:ae:c4:f5:25:5d:b9:74:b2:f5:
         e2:2b:e0:43:c8:50:61:a3:a8:26:1a:03:ab:1a:24:3b:13:56:
         da:0d:ee:ff:2f:bd:d5:77:82:72:63:b8:aa:e1:18:f7:3b:c1:
         a1:f8:51:b1:70:b9:25:39:df:a3:41:79:d7:2b:ec:32:f6:cb:
         30:28:d2:1e:f1:b4:e1:80:03:9f:c2:0f:36:85:82:5e:39:ba:
         9e:eb:67:76:42:93:bf:e0:df:64:b2:b5:5f:98:a1:45:3f:4a:
         1f:5c:c5:04:10:f6
-----BEGIN CERTIFICATE-----
MIIEXTCCAsWgAwIBAgIIcLn06y+hlZkwDQYJKoZIhvcNAQELBQAwfTELMAkGA1UE
BhMCVUExGDAWBgNVBAgMD0toYXJraXYgT2JsYXN0JzEQMA4GA1UEBwwHS2hhcmtp
djEkMCIGA1UECgwbSW50ZXJuZXQgU3lzdGVtcyBDb25zb3J0aXVtMRwwGgYDVQQD
DBNjYS50ZXN0LmV4YW1wbGUuY29tMB4XDTIyMDkwNjIwMzQwOVoXDTIyMDkwNzIw
MzQwOVowKjEoMCYGA1UEAwwfc3J2MDEuY3J0MDItZXhwaXJlZC5leGFtcGxlLm5p
bDCCAaIwDQYJKoZIhvcNAQEBBQADggGPADCCAYoCggGBAOwsiAG1izp0Vg1Xs3X9
BVgF7Yqr6CkO8VI0LiJibkF0/3gztP8Vc/rOkBCk/tJmFHsLeXvWIIj5QTEUmkk2
jDh0S/PiUeflb71lOOacMIA/JFb2aJ4JdoFbWYFEVp8cP0jwlb9gQCnfrEI9w2+F
LcMOCLb3EipRAL/P/myu133ewXL4MgNfyT9K3uX6JJBG8EpfCdiTTL8cYUzS3Nts
+K9zW7c7euhtHLsmI0eH/VAGD/G1iIqoJWlX40Y70mtS+1oB9pbpKs8T5xZM/Vr2
HwuN9yWjaNcV/FxISQXihSRwV7HYBSSuJjoAm3KoRwXF83wt8lhyN/vBi09Cj92a
rFuubyFirSmBuYtLbP9hmQ98CdNtACAtsQwAbJlMktwOES3nunvHyLGjGmH4zCyv
F7bbzDYC/vtmFXeEcM1CJbcWZCiunYyBhaDgUIKq6OmsUfwrY0SxCLiQ14wcI7Ib
CFmF1d05RPdHXkgINOss33VHCLa25jLtdnR3zj1N/gKxMwIDAQABozQwMjAwBgNV
HREEKTAngh9zcnYwMS5jcnQwMi1leHBpcmVkLmV4YW1wbGUubmlshwQKNQABMA0G
CSqGSIb3DQEBCwUAA4IBgQAqUsTLqS/3K+0EtQPVBlntXHy3AJ7EM5D+0LAY8/IG
MFQY/jTL6mFPnCNnPK7tIN+CUuxZiEWtPGynNCQcTWarcT1ZjO/NoOJ7WS1DlM31
CjxOgSTo/cbQ/a1vzClbZwu37kM4pJHC2Tv41pe8kt3soauFNUT0Ct+tjYxSw0l+
ORChE0N4ceKSqjE92ZQVf4bIqrShbb/rVbHXQW/DfYhenLexSw2nF08+SkY/b0gn
jNDlUfxCusW5T2NvLvL9DMBuI7RZk2ikLRbO9Hs6RR2gbpgL92rmdQzbVhlriPB/
awj4/LvRPyUlGmyONMuRGFTVLc6c0LfDvLUK4Llzb02tazy2Se/AEBPHCnhNmH3L
hKEpQIzdMX2uxPUlXbl0svXiK+BDyFBho6gmGgOrGiQ7E1baDe7/L73Vd4JyY7iq
4Rj3O8Gh+FGxcLklOd+jQXnXK+wy9sswKNIe8bThgAOfwg82hYJeObqe62d2QpO/
4N9ksrVfmKFFP0ofXMUEEPY=
-----END CERTIFICATE-----
