Certificate:
    Data:
        Version: 3 (0x2)
        Serial Number: 8122792693893010843 (0x70b9f4eb2fa1959b)
        Signature Algorithm: sha256WithRSAEncryption
        Issuer: C=UA, ST=Kharkiv Oblast', L=Kharkiv, O=Internet Systems Consortium, CN=ca.test.example.com
        Validity
            Not Before: Sep  7 08:14:18 2022 GMT
            Not After : Sep  8 08:14:18 2022 GMT
        Subject: CN=srv01.client02-expired.example.nil
        Subject Public Key Info:
            Public Key Algorithm: rsaEncryption
                RSA Public-Key: (3072 bit)
                Modulus:
                    00:c0:11:27:17:25:3a:ad:85:a0:3b:59:0b:22:64:
                    63:7d:bb:05:32:35:4f:68:d5:19:2b:cd:46:bd:e2:
                    b6:42:8c:08:cf:09:0d:a8:cd:58:d9:1b:77:db:17:
                    8a:fc:f0:55:f2:e1:50:f4:fd:90:aa:49:15:5d:ea:
                    9b:5a:47:c4:2f:82:07:46:87:f6:05:ef:15:02:a4:
                    3c:a1:da:fc:5b:75:36:12:f7:12:50:55:f8:be:0c:
                    7d:21:91:e2:92:d8:41:3f:71:fe:b2:17:c0:68:1d:
                    09:be:fc:c4:24:ec:ef:d2:5c:52:a9:4f:d6:5d:30:
                    b8:ab:68:2e:39:e9:8b:5b:c6:f0:64:42:f7:b8:bd:
                    b2:90:32:22:68:bc:38:70:2f:14:ae:c8:7c:63:04:
                    d5:11:b2:0a:f1:8e:13:10:b2:3b:69:f4:fe:3a:e2:
                    f1:58:56:28:93:c1:28:aa:a7:19:c9:91:12:43:f8:
                    f5:1d:34:58:3d:32:9f:11:67:d1:1f:53:d4:e0:d5:
                    0c:78:2c:6f:38:3f:e1:89:69:b5:09:3c:12:f4:a9:
                    ee:e5:2f:c5:47:65:a6:82:fa:ea:78:48:31:89:11:
                    b6:23:8a:27:ed:7c:1d:6d:e8:ab:a0:29:de:40:f4:
                    f2:9b:61:22:da:9c:22:32:f7:3d:f8:4c:e1:38:a7:
                    e2:c3:af:a4:67:7f:94:a4:fd:52:25:89:4d:f4:9a:
                    d6:35:ba:98:20:f1:4b:c9:a5:cf:ac:72:58:2a:cd:
                    3b:4a:3e:e9:04:31:e2:9a:74:32:d5:52:60:34:ad:
                    0c:85:02:65:58:41:74:2a:57:91:34:55:36:a9:14:
                    5b:45:cc:28:27:d7:6d:ba:55:a3:dd:9f:00:04:a4:
                    43:c2:af:5c:af:86:53:a6:d5:a7:49:aa:31:d6:5e:
                    92:7d:26:dd:8d:f4:87:8a:9b:48:e8:25:f4:c7:34:
                    ca:cf:e3:f7:84:19:3b:43:c7:6a:b8:da:6e:6f:85:
                    af:8d:0c:fb:7c:ea:c7:73:9c:9b
                Exponent: 65537 (0x10001)
        X509v3 extensions:
            X509v3 Subject Alternative Name:
                DNS:srv01.client02-expired.example.nil, IP Address:10.53.0.1
    Signature Algorithm: sha256WithRSAEncryption
         18:f1:7c:24:5b:d2:03:b0:60:0e:60:e6:32:f9:a7:47:d1:e4:
         bd:3f:a3:21:53:90:84:9a:c6:2c:87:b2:16:28:95:07:a3:2a:
         c3:33:8f:60:70:3f:26:58:be:ec:a2:6c:44:89:d3:4e:ef:bb:
         ce:af:9b:5f:15:06:03:21:74:e3:6f:2a:dc:5c:19:4e:d3:cb:
         ba:c3:5f:d8:76:89:59:50:82:69:5f:a1:ac:9f:be:79:e1:22:
         12:37:f9:d3:2e:00:35:03:03:9d:08:24:45:65:7a:e9:72:31:
         e1:67:44:32:17:25:dd:b9:72:eb:c6:40:d7:5d:8d:5f:00:48:
         07:09:0d:3c:4c:a1:f1:05:4b:05:9b:2b:5a:21:09:46:f4:17:
         7a:cf:34:87:ad:bf:ef:bd:56:74:d7:1a:8f:07:ce:70:b1:aa:
         4d:82:4f:08:dc:56:27:f9:21:20:b8:06:c7:29:b4:8e:36:82:
         b8:43:85:1c:2d:9f:be:2d:b9:9d:40:de:52:55:6a:2e:0b:28:
         33:fc:f8:1b:70:e9:c5:46:50:f3:05:be:8d:ed:99:ec:f1:8c:
         51:8a:1c:4b:95:f4:c4:dd:cd:42:74:bc:6f:66:64:54:b8:c1:
         6e:c8:3d:e9:fe:10:02:61:50:77:38:b9:b0:b8:13:37:8f:0e:
         5b:49:92:3a:9d:9a:60:51:68:99:8a:d5:7e:92:71:7e:fa:db:
         52:37:4d:f9:0d:6c:3b:79:a3:b9:16:b7:95:00:ea:eb:17:54:
         e2:50:d7:a5:08:54:58:2c:79:66:01:4b:95:65:ed:b8:81:f7:
         4c:fa:f8:89:37:ad:d9:dc:c9:75:9d:02:3e:e5:92:b3:03:ab:
         70:69:83:f5:6c:a6:27:7e:2e:fc:9d:b2:59:0a:43:ad:3f:55:
         2f:5d:ec:ef:52:f0:3e:be:b5:d6:e2:c3:91:9d:dd:5d:e1:9e:
         e6:18:90:0b:6a:85:f8:e3:83:2a:7c:91:c3:52:1c:6d:aa:2b:
         44:b8:6f:2b:af:6e
-----BEGIN CERTIFICATE-----
MIIEYzCCAsugAwIBAgIIcLn06y+hlZswDQYJKoZIhvcNAQELBQAwfTELMAkGA1UE
BhMCVUExGDAWBgNVBAgMD0toYXJraXYgT2JsYXN0JzEQMA4GA1UEBwwHS2hhcmtp
djEkMCIGA1UECgwbSW50ZXJuZXQgU3lzdGVtcyBDb25zb3J0aXVtMRwwGgYDVQQD
DBNjYS50ZXN0LmV4YW1wbGUuY29tMB4XDTIyMDkwNzA4MTQxOFoXDTIyMDkwODA4
MTQxOFowLTErMCkGA1UEAwwic3J2MDEuY2xpZW50MDItZXhwaXJlZC5leGFtcGxl
Lm5pbDCCAaIwDQYJKoZIhvcNAQEBBQADggGPADCCAYoCggGBAMARJxclOq2FoDtZ
CyJkY327BTI1T2jVGSvNRr3itkKMCM8JDajNWNkbd9sXivzwVfLhUPT9kKpJFV3q
m1pHxC+CB0aH9gXvFQKkPKHa/Ft1NhL3ElBV+L4MfSGR4pLYQT9x/rIXwGgdCb78
xCTs79JcUqlP1l0wuKtoLjnpi1vG8GRC97i9spAyImi8OHAvFK7IfGME1RGyCvGO
ExCyO2n0/jri8VhWKJPBKKqnGcmREkP49R00WD0ynxFn0R9T1ODVDHgsbzg/4Ylp
tQk8EvSp7uUvxUdlpoL66nhIMYkRtiOKJ+18HW3oq6Ap3kD08pthItqcIjL3PfhM
4Tin4sOvpGd/lKT9UiWJTfSa1jW6mCDxS8mlz6xyWCrNO0o+6QQx4pp0MtVSYDSt
DIUCZVhBdCpXkTRVNqkUW0XMKCfXbbpVo92fAASkQ8KvXK+GU6bVp0mqMdZekn0m
3Y30h4qbSOgl9Mc0ys/j94QZO0PHarjabm+Fr40M+3zqx3OcmwIDAQABozcwNTAz
BgNVHREELDAqgiJzcnYwMS5jbGllbnQwMi1leHBpcmVkLmV4YW1wbGUubmlshwQK
NQABMA0GCSqGSIb3DQEBCwUAA4IBgQAY8XwkW9IDsGAOYOYy+adH0eS9P6MhU5CE
msYsh7IWKJUHoyrDM49gcD8mWL7somxEidNO77vOr5tfFQYDIXTjbyrcXBlO08u6
w1/YdolZUIJpX6Gsn7554SISN/nTLgA1AwOdCCRFZXrpcjHhZ0QyFyXduXLrxkDX
XY1fAEgHCQ08TKHxBUsFmytaIQlG9Bd6zzSHrb/vvVZ01xqPB85wsapNgk8I3FYn
+SEguAbHKbSONoK4Q4UcLZ++LbmdQN5SVWouCygz/PgbcOnFRlDzBb6N7Zns8YxR
ihxLlfTE3c1CdLxvZmRUuMFuyD3p/hACYVB3OLmwuBM3jw5bSZI6nZpgUWiZitV+
knF++ttSN035DWw7eaO5FreVAOrrF1TiUNelCFRYLHlmAUuVZe24gfdM+viJN63Z
3Ml1nQI+5ZKzA6twaYP1bKYnfi78nbJZCkOtP1UvXezvUvA+vrXW4sORnd1d4Z7m
GJALaoX444MqfJHDUhxtqitEuG8rr24=
-----END CERTIFICATE-----
