Certificate:
    Data:
        Version: 3 (0x2)
        Serial Number:
            c5:86:68:39:7b:1c:c4:a0
        Signature Algorithm: sha256WithRSAEncryption
        Issuer: C=UA, ST=Kharkiv Oblast', L=Kharkiv, O=Internet Systems Consortium, CN=ca.test.example.com
        Validity
            Not Before: Sep  3 15:33:18 2024 GMT
            Not After : Aug 27 15:33:18 2054 GMT
        Subject: CN=srv03.crt01.example.com
        Subject Public Key Info:
            Public Key Algorithm: id-ecPublicKey
                Public-Key: (384 bit)
                pub:
                    04:12:6c:5b:72:db:b4:68:44:ee:c1:3d:91:48:f7:
                    23:39:57:ae:31:21:41:8c:7b:8a:38:2d:80:40:e9:
                    c2:a1:14:50:95:3b:47:d7:ea:1e:9b:3b:4c:20:87:
                    67:c2:81:86:d6:3a:ad:97:e9:0d:57:ff:1d:fa:81:
                    52:42:ce:05:d2:05:73:cd:92:d7:4c:23:19:22:f5:
                    cb:6d:44:4b:d7:a3:57:26:10:b2:a5:fe:7f:8f:5c:
                    38:31:71:b8:3f:45:b3
                ASN1 OID: secp384r1
                NIST CURVE: P-384
        X509v3 extensions:
            X509v3 Subject Alternative Name:
                DNS:srv03.crt01.example.com, IP Address:10.53.0.3
            X509v3 Subject Key Identifier:
                6A:4F:85:19:52:0E:08:29:28:1B:96:53:84:97:0E:AA:35:C3:96:27
            X509v3 Authority Key Identifier:
                7C:89:E8:5C:EB:E5:1F:72:48:04:C5:8F:FB:92:08:9C:F5:60:26:39
    Signature Algorithm: sha256WithRSAEncryption
    Signature Value:
        62:05:bb:62:4e:2a:6a:46:00:49:3e:83:b3:a7:ff:40:68:02:
        36:06:1f:e7:c9:47:db:72:09:be:78:bc:e6:c5:b4:8c:51:7c:
        d5:93:06:ec:24:ad:11:a7:32:16:3a:55:79:a3:ab:4c:68:10:
        78:f2:e8:24:b3:c0:9c:3a:cd:11:45:7a:22:37:3e:a3:9d:5d:
        3e:ed:91:bd:58:04:2d:f6:6d:2e:0f:61:1d:4f:ab:d7:47:11:
        1b:c7:06:9d:1d:2d:df:85:93:fa:08:dc:27:32:3a:70:37:61:
        7a:58:95:0a:ca:62:ea:28:64:a1:2d:37:0e:7d:f9:0a:6c:71:
        23:20:6a:5d:2d:6b:f2:fe:23:f8:7b:89:51:21:e3:dd:2d:52:
        e7:a3:bc:b9:62:86:65:21:de:90:6a:66:f8:ef:25:aa:da:e5:
        b7:5f:f1:8e:ab:2d:5a:50:5f:b8:98:8a:00:d0:7b:e3:51:ec:
        d8:a5:67:ee:2a:93:b5:62:84:9b:f5:c7:cd:72:de:53:99:a8:
        45:b3:f6:4c:31:58:f2:5c:cd:a3:ec:f1:1c:3a:29:cf:8e:b8:
        60:ba:c3:cd:d9:7d:bd:9a:b0:41:b3:dd:fb:37:0f:56:54:5b:
        5e:99:d1:a7:58:57:ac:9e:52:c5:74:3e:c2:df:72:82:07:bf:
        b2:48:87:9e:16:d8:03:3b:3b:a2:0a:03:55:83:69:44:f2:14:
        c8:6b:50:20:89:85:16:b4:be:c6:6c:42:91:00:09:d7:55:9f:
        c3:0c:9b:5f:58:bf:43:9d:42:ca:f3:25:1f:d8:f4:b2:87:86:
        a8:59:60:e9:53:23:2e:27:e8:97:02:d6:a6:91:9a:81:fb:28:
        e4:47:86:c3:3a:55:ca:f0:24:1f:be:dd:00:d3:db:6a:20:5c:
        a3:b0:7a:5f:d9:a7:9b:35:f7:23:c7:2b:9d:98:f9:5c:89:5a:
        6d:d4:ed:1c:d7:ec:40:0c:b0:c2:92:24:4b:78:a1:ab:7e:27:
        cf:19:2c:ec:3a:77
-----BEGIN CERTIFICATE-----
MIIDYjCCAcqgAwIBAgIJAMWGaDl7HMSgMA0GCSqGSIb3DQEBCwUAMH0xCzAJBgNV
BAYTAlVBMRgwFgYDVQQIDA9LaGFya2l2IE9ibGFzdCcxEDAOBgNVBAcMB0toYXJr
aXYxJDAiBgNVBAoMG0ludGVybmV0IFN5c3RlbXMgQ29uc29ydGl1bTEcMBoGA1UE
AwwTY2EudGVzdC5leGFtcGxlLmNvbTAgFw0yNDA5MDMxNTMzMThaGA8yMDU0MDgy
NzE1MzMxOFowIjEgMB4GA1UEAwwXc3J2MDMuY3J0MDEuZXhhbXBsZS5jb20wdjAQ
BgcqhkjOPQIBBgUrgQQAIgNiAAQSbFty27RoRO7BPZFI9yM5V64xIUGMe4o4LYBA
6cKhFFCVO0fX6h6bO0wgh2fCgYbWOq2X6Q1X/x36gVJCzgXSBXPNktdMIxki9ctt
REvXo1cmELKl/n+PXDgxcbg/RbOjbDBqMCgGA1UdEQQhMB+CF3NydjAzLmNydDAx
LmV4YW1wbGUuY29thwQKNQADMB0GA1UdDgQWBBRqT4UZUg4IKSgbllOElw6qNcOW
JzAfBgNVHSMEGDAWgBR8iehc6+UfckgExY/7kgic9WAmOTANBgkqhkiG9w0BAQsF
AAOCAYEAYgW7Yk4qakYAST6Ds6f/QGgCNgYf58lH23IJvni85sW0jFF81ZMG7CSt
EacyFjpVeaOrTGgQePLoJLPAnDrNEUV6Ijc+o51dPu2RvVgELfZtLg9hHU+r10cR
G8cGnR0t34WT+gjcJzI6cDdheliVCspi6ihkoS03Dn35CmxxIyBqXS1r8v4j+HuJ
USHj3S1S56O8uWKGZSHekGpm+O8lqtrlt1/xjqstWlBfuJiKANB741Hs2KVn7iqT
tWKEm/XHzXLeU5moRbP2TDFY8lzNo+zxHDopz464YLrDzdl9vZqwQbPd+zcPVlRb
XpnRp1hXrJ5SxXQ+wt9ygge/skiHnhbYAzs7ogoDVYNpRPIUyGtQIImFFrS+xmxC
kQAJ11WfwwybX1i/Q51CyvMlH9j0soeGqFlg6VMjLifolwLWppGagfso5EeGwzpV
yvAkH77dANPbaiBco7B6X9mnmzX3I8crnZj5XIlabdTtHNfsQAywwpIkS3ihq34n
zxks7Dp3
-----END CERTIFICATE-----
