Certificate:
    Data:
        Version: 3 (0x2)
        Serial Number:
            c5:86:68:39:7b:1c:c4:a2
        Signature Algorithm: sha256WithRSAEncryption
        Issuer: C=UA, ST=Kharkiv Oblast', L=Kharkiv, O=Internet Systems Consortium, CN=ca.test.example.com
        Validity
            Not Before: Sep 17 16:18:18 2024 GMT
            Not After : Sep 18 16:18:18 2024 GMT
        Subject: CN=srv02.crt01-expired.example.com
        Subject Public Key Info:
            Public Key Algorithm: id-ecPublicKey
                Public-Key: (384 bit)
                pub:
                    04:fe:00:66:4c:db:44:7f:02:79:5b:98:93:a8:67:
                    8a:87:5a:07:0f:84:40:c8:67:7f:b9:af:32:18:a7:
                    22:fa:ed:a7:56:da:17:a7:45:9d:ac:fd:42:cc:8b:
                    fb:ff:3a:92:d8:7e:e4:fc:7f:54:68:44:7c:61:25:
                    42:b4:92:9b:b5:cb:1d:51:d2:61:08:f7:89:22:9b:
                    0d:8e:72:99:df:d9:51:c8:92:c9:a5:f8:3f:2d:11:
                    e9:34:87:49:5c:cc:2d
                ASN1 OID: secp384r1
                NIST CURVE: P-384
        X509v3 extensions:
            X509v3 Subject Alternative Name:
                DNS:srv02.crt01-expired.example.com, IP Address:10.53.0.2
            X509v3 Subject Key Identifier:
                03:4C:AC:DE:C0:A3:EB:04:56:1C:10:47:EB:C9:4D:1A:5F:FD:8E:A1
            X509v3 Authority Key Identifier:
                7C:89:E8:5C:EB:E5:1F:72:48:04:C5:8F:FB:92:08:9C:F5:60:26:39
    Signature Algorithm: sha256WithRSAEncryption
    Signature Value:
        25:33:d0:30:6e:60:5e:f3:29:e7:1d:36:83:4d:cd:06:d2:35:
        df:80:76:25:e5:56:c6:e7:5f:cb:70:c8:30:da:a1:15:50:1b:
        5d:e0:7b:01:60:47:32:ee:ea:98:cd:27:c2:2e:b8:d5:4a:2f:
        76:7b:f1:0d:ff:c3:b3:74:f9:98:37:c1:07:85:04:55:8f:42:
        25:b7:21:03:50:83:50:01:6a:88:84:bc:83:2c:48:3f:e5:96:
        04:d7:b5:56:68:7c:fe:d9:06:e2:bc:f0:fd:47:fd:4b:4c:9b:
        15:ca:ab:10:e4:8d:8f:b5:f7:dd:69:8c:9d:06:00:8f:80:5b:
        30:a6:6c:31:d2:b8:4b:cf:10:2a:bf:64:fb:be:da:3f:e2:ee:
        f1:6c:74:02:a7:c5:0c:e2:13:f1:54:63:a9:45:43:7b:b7:85:
        a3:48:00:62:34:db:ac:a1:b6:b8:76:b9:d9:aa:17:a2:f9:0b:
        96:87:ad:da:5e:95:50:2b:73:17:d7:2c:d0:43:40:e3:e9:80:
        e2:87:be:1d:65:68:17:0d:90:98:0a:9b:6d:4f:2d:91:3e:f0:
        16:4e:c0:c3:e7:a9:a6:e8:bf:8e:b6:d0:3b:72:e6:d9:9a:b3:
        70:82:23:c1:02:c2:cc:91:d7:75:19:3c:79:33:ea:86:8d:80:
        9a:6b:f2:93:b4:dc:22:19:11:82:3d:62:1d:e5:58:58:7f:50:
        84:b0:d4:5a:67:be:d0:28:b0:be:a1:7f:9d:1b:a2:98:9b:70:
        5a:c0:a8:c5:03:ec:de:8a:e2:ea:03:2d:4e:9f:6c:7d:d8:0e:
        41:3c:58:df:3f:1e:4f:69:04:68:54:59:58:ef:dd:e3:32:b3:
        2c:b4:cc:40:28:eb:3e:3b:37:fd:42:f7:d9:60:bf:fa:6d:87:
        ca:ed:43:24:93:47:a8:bc:54:cc:c9:4d:ac:d0:b8:09:cb:85:
        c3:02:55:73:bf:f0:ff:a3:fc:d2:d1:ae:ea:5a:96:6a:76:51:
        fb:da:d9:ad:e4:cd
-----BEGIN CERTIFICATE-----
MIIDcDCCAdigAwIBAgIJAMWGaDl7HMSiMA0GCSqGSIb3DQEBCwUAMH0xCzAJBgNV
BAYTAlVBMRgwFgYDVQQIDA9LaGFya2l2IE9ibGFzdCcxEDAOBgNVBAcMB0toYXJr
aXYxJDAiBgNVBAoMG0ludGVybmV0IFN5c3RlbXMgQ29uc29ydGl1bTEcMBoGA1UE
AwwTY2EudGVzdC5leGFtcGxlLmNvbTAeFw0yNDA5MTcxNjE4MThaFw0yNDA5MTgx
NjE4MThaMCoxKDAmBgNVBAMMH3NydjAyLmNydDAxLWV4cGlyZWQuZXhhbXBsZS5j
b20wdjAQBgcqhkjOPQIBBgUrgQQAIgNiAAT+AGZM20R/AnlbmJOoZ4qHWgcPhEDI
Z3+5rzIYpyL67adW2henRZ2s/ULMi/v/OpLYfuT8f1RoRHxhJUK0kpu1yx1R0mEI
94kimw2Ocpnf2VHIksml+D8tEek0h0lczC2jdDByMDAGA1UdEQQpMCeCH3NydjAy
LmNydDAxLWV4cGlyZWQuZXhhbXBsZS5jb22HBAo1AAIwHQYDVR0OBBYEFANMrN7A
o+sEVhwQR+vJTRpf/Y6hMB8GA1UdIwQYMBaAFHyJ6Fzr5R9ySATFj/uSCJz1YCY5
MA0GCSqGSIb3DQEBCwUAA4IBgQAlM9AwbmBe8ynnHTaDTc0G0jXfgHYl5VbG51/L
cMgw2qEVUBtd4HsBYEcy7uqYzSfCLrjVSi92e/EN/8OzdPmYN8EHhQRVj0IltyED
UINQAWqIhLyDLEg/5ZYE17VWaHz+2QbivPD9R/1LTJsVyqsQ5I2PtffdaYydBgCP
gFswpmwx0rhLzxAqv2T7vto/4u7xbHQCp8UM4hPxVGOpRUN7t4WjSABiNNusoba4
drnZqhei+QuWh63aXpVQK3MX1yzQQ0Dj6YDih74dZWgXDZCYCpttTy2RPvAWTsDD
56mm6L+OttA7cubZmrNwgiPBAsLMkdd1GTx5M+qGjYCaa/KTtNwiGRGCPWId5VhY
f1CEsNRaZ77QKLC+oX+dG6KYm3BawKjFA+zeiuLqAy1On2x92A5BPFjfPx5PaQRo
VFlY793jMrMstMxAKOs+Ozf9QvfZYL/6bYfK7UMkk0eovFTMyU2s0LgJy4XDAlVz
v/D/o/zS0a7qWpZqdlH72tmt5M0=
-----END CERTIFICATE-----
