Certificate:
    Data:
        Version: 3 (0x2)
        Serial Number:
            c5:86:68:39:7b:1c:c4:9f
        Signature Algorithm: sha256WithRSAEncryption
        Issuer: C=UA, ST=Kharkiv Oblast', L=Kharkiv, O=Internet Systems Consortium, CN=ca.test.example.com
        Validity
            Not Before: Sep  3 15:33:14 2024 GMT
            Not After : Aug 27 15:33:14 2054 GMT
        Subject: CN=srv02.crt01.example.com
        Subject Public Key Info:
            Public Key Algorithm: id-ecPublicKey
                Public-Key: (384 bit)
                pub:
                    04:36:6c:27:61:df:82:ed:84:0f:0c:cc:5e:c1:79:
                    98:58:7e:f5:0e:0c:51:f7:7d:24:80:26:e4:43:31:
                    26:8e:d3:67:f6:f7:8f:84:d8:87:32:f7:55:bd:02:
                    11:5e:b5:27:1e:65:ad:03:86:57:5c:69:55:5a:3d:
                    59:b7:6e:18:63:bc:b5:06:14:89:85:99:c7:05:b4:
                    db:50:8f:f9:65:44:26:d8:f5:51:6d:6d:f5:da:63:
                    f5:6a:e7:6e:37:10:08
                ASN1 OID: secp384r1
                NIST CURVE: P-384
        X509v3 extensions:
            X509v3 Subject Alternative Name:
                DNS:srv02.crt01.example.com, IP Address:10.53.0.2
            X509v3 Subject Key Identifier:
                4C:A6:2B:5F:55:DF:2E:1E:FA:E8:C6:3F:05:25:20:69:BA:60:3B:E2
            X509v3 Authority Key Identifier:
                7C:89:E8:5C:EB:E5:1F:72:48:04:C5:8F:FB:92:08:9C:F5:60:26:39
    Signature Algorithm: sha256WithRSAEncryption
    Signature Value:
        1d:22:c4:60:42:9a:d8:ac:54:cf:77:be:17:d0:eb:b4:7d:44:
        b1:ad:bf:53:0e:be:61:37:bf:7b:a6:78:7e:a0:3f:aa:21:cd:
        09:3a:d4:41:b5:9f:31:a2:c9:db:df:94:a4:05:02:dd:98:04:
        38:55:af:20:3a:4d:82:cd:37:0f:a5:b8:9c:dc:0d:f8:07:c9:
        9d:8e:0a:4f:df:f1:8d:0c:53:9b:56:a2:35:7e:0a:3d:47:89:
        ad:76:8f:6c:f5:15:0e:3f:05:af:fb:f8:97:97:a3:91:a6:cf:
        22:04:c0:35:24:84:b4:e5:4d:c0:bf:e0:8d:8b:59:bf:71:2e:
        c3:d8:8e:c9:9d:ba:0a:32:cb:0f:b8:b8:e3:91:f9:77:78:55:
        17:9f:6e:09:d6:29:86:25:b6:0d:9b:52:b7:0a:75:f7:cd:09:
        5d:04:83:9f:08:8f:eb:8c:23:73:e0:14:2b:be:ba:22:96:8f:
        68:f8:c7:39:a7:44:9b:1d:ce:cb:eb:04:33:c0:da:b8:03:c0:
        5b:7a:3c:a1:f5:28:92:93:06:f2:32:c3:38:fe:68:5d:64:21:
        6e:3f:8b:80:f8:01:8f:19:5c:fa:13:6c:5e:27:55:19:70:87:
        70:02:80:79:d2:37:d3:d9:05:b1:8e:50:37:24:f0:32:33:bb:
        e9:f2:26:f8:19:92:d5:ad:2a:09:c1:b0:48:52:f4:e3:62:cd:
        e1:b4:51:d9:0a:88:e3:fb:1e:c9:5c:a5:83:fe:30:9d:cf:83:
        22:ba:1a:cd:c9:a9:e0:3d:cc:8d:f7:68:9e:17:a2:36:78:ab:
        6f:01:de:20:a1:0d:a2:30:12:ee:45:14:b6:f7:c4:e4:d3:4e:
        c7:0b:d7:14:b2:49:5c:f8:3a:fc:29:43:fa:97:d1:70:46:54:
        c0:a9:c6:eb:f0:91:59:0e:24:8f:e5:38:79:38:fb:86:ab:3c:
        b1:ea:d2:a3:4c:2c:e4:29:1a:03:da:54:a0:a6:73:ac:b4:c8:
        02:5a:4c:38:e0:23
-----BEGIN CERTIFICATE-----
MIIDYjCCAcqgAwIBAgIJAMWGaDl7HMSfMA0GCSqGSIb3DQEBCwUAMH0xCzAJBgNV
BAYTAlVBMRgwFgYDVQQIDA9LaGFya2l2IE9ibGFzdCcxEDAOBgNVBAcMB0toYXJr
aXYxJDAiBgNVBAoMG0ludGVybmV0IFN5c3RlbXMgQ29uc29ydGl1bTEcMBoGA1UE
AwwTY2EudGVzdC5leGFtcGxlLmNvbTAgFw0yNDA5MDMxNTMzMTRaGA8yMDU0MDgy
NzE1MzMxNFowIjEgMB4GA1UEAwwXc3J2MDIuY3J0MDEuZXhhbXBsZS5jb20wdjAQ
BgcqhkjOPQIBBgUrgQQAIgNiAAQ2bCdh34LthA8MzF7BeZhYfvUODFH3fSSAJuRD
MSaO02f294+E2Icy91W9AhFetSceZa0DhldcaVVaPVm3bhhjvLUGFImFmccFtNtQ
j/llRCbY9VFtbfXaY/Vq5243EAijbDBqMCgGA1UdEQQhMB+CF3NydjAyLmNydDAx
LmV4YW1wbGUuY29thwQKNQACMB0GA1UdDgQWBBRMpitfVd8uHvroxj8FJSBpumA7
4jAfBgNVHSMEGDAWgBR8iehc6+UfckgExY/7kgic9WAmOTANBgkqhkiG9w0BAQsF
AAOCAYEAHSLEYEKa2KxUz3e+F9DrtH1Esa2/Uw6+YTe/e6Z4fqA/qiHNCTrUQbWf
MaLJ29+UpAUC3ZgEOFWvIDpNgs03D6W4nNwN+AfJnY4KT9/xjQxTm1aiNX4KPUeJ
rXaPbPUVDj8Fr/v4l5ejkabPIgTANSSEtOVNwL/gjYtZv3Euw9iOyZ26CjLLD7i4
45H5d3hVF59uCdYphiW2DZtStwp1980JXQSDnwiP64wjc+AUK766IpaPaPjHOadE
mx3Oy+sEM8DauAPAW3o8ofUokpMG8jLDOP5oXWQhbj+LgPgBjxlc+hNsXidVGXCH
cAKAedI309kFsY5QNyTwMjO76fIm+BmS1a0qCcGwSFL042LN4bRR2QqI4/seyVyl
g/4wnc+DIroazcmp4D3MjfdonheiNnirbwHeIKENojAS7kUUtvfE5NNOxwvXFLJJ
XPg6/ClD+pfRcEZUwKnG6/CRWQ4kj+U4eTj7hqs8serSo0ws5CkaA9pUoKZzrLTI
AlpMOOAj
-----END CERTIFICATE-----
